target datalayout = "e-m:e-p270:32:32-p271:32:32-p272:64:64-i64:64-i128:128-f80:128-n8:16:32:64-S128"
target triple = "x86_64-pc-linux-gnu"

%"struct.icu_77::FormattedStringBuilder::Field" = type { i8 }
%"struct.icu_77::number::impl::SimpleMicroProps" = type { [4 x i8], %"class.icu_77::number::impl::Grouper", i8, i32, %"class.icu_77::UnicodeString", ptr }
%"class.icu_77::number::impl::Grouper" = type { i16, i16, i16, i32 }
%"class.icu_77::UnicodeString" = type { %"class.icu_77::Replaceable", %"union.icu_77::UnicodeString::StackBufferOrFields" }
%"class.icu_77::Replaceable" = type { %"class.icu_77::UObject" }
%"class.icu_77::UObject" = type { ptr }
%"union.icu_77::UnicodeString::StackBufferOrFields" = type { %struct.anon.0, [32 x i8] }
%struct.anon.0 = type { i16, i32, i32, ptr }
%"class.icu_77::Locale" = type <{ %"class.icu_77::UObject", [12 x i8], [6 x i8], [4 x i8], [2 x i8], i32, [4 x i8], ptr, [157 x i8], [3 x i8], ptr, i8, [7 x i8] }>
%"class.icu_77::DecimalFormatSymbols" = type <{ %"class.icu_77::UObject", [29 x %"class.icu_77::UnicodeString"], %"class.icu_77::UnicodeString", i32, [4 x i8], %"class.icu_77::Locale", ptr, ptr, ptr, [3 x %"class.icu_77::UnicodeString"], [3 x %"class.icu_77::UnicodeString"], i8, i8, [9 x i8], [5 x i8] }>

; Function Attrs: inlinehint mustprogress nounwind uwtable
define linkonce_odr noundef nonnull align 8 dereferenceable(64) ptr @_ZNK6icu_7720DecimalFormatSymbols19getConstDigitSymbolEi(ptr noundef nonnull align 8 dereferenceable(2579) %0, i32 noundef %1) #2 comdat align 2 {
  %3 = alloca ptr, align 8
  %4 = alloca ptr, align 8
  %5 = alloca i32, align 4
  %6 = alloca i32, align 4
  store ptr %0, ptr %4, align 8, !tbaa !158
  store i32 %1, ptr %5, align 4, !tbaa !14
  %7 = load ptr, ptr %4, align 8
  %8 = load i32, ptr %5, align 4, !tbaa !14
  %9 = icmp slt i32 %8, 0
  br i1 %9, label %13, label %10

10:                                               ; preds = %2
  %11 = load i32, ptr %5, align 4, !tbaa !14
  %12 = icmp sgt i32 %11, 9
  br i1 %12, label %13, label %14

13:                                               ; preds = %10, %2
  store i32 0, ptr %5, align 4, !tbaa !14
  br label %14

14:                                               ; preds = %13, %10
  %15 = load i32, ptr %5, align 4, !tbaa !14
  %16 = icmp eq i32 %15, 0
  br i1 %16, label %17, label %20

17:                                               ; preds = %14
  %18 = getelementptr inbounds nuw %"class.icu_77::DecimalFormatSymbols", ptr %7, i32 0, i32 1
  %19 = getelementptr inbounds nuw [29 x %"class.icu_77::UnicodeString"], ptr %18, i64 0, i64 4
  store ptr %19, ptr %3, align 8
  br label %28

20:                                               ; preds = %14
  call void @llvm.lifetime.start.p0(i64 4, ptr %6) #14
  %21 = load i32, ptr %5, align 4, !tbaa !14
  %22 = add nsw i32 18, %21
  %23 = sub nsw i32 %22, 1
  store i32 %23, ptr %6, align 4, !tbaa !329
  %24 = getelementptr inbounds nuw %"class.icu_77::DecimalFormatSymbols", ptr %7, i32 0, i32 1
  %25 = load i32, ptr %6, align 4, !tbaa !329
  %26 = zext i32 %25 to i64
  %27 = getelementptr inbounds nuw [29 x %"class.icu_77::UnicodeString"], ptr %24, i64 0, i64 %26
  store ptr %27, ptr %3, align 8
  call void @llvm.lifetime.end.p0(i64 4, ptr %6) #14
  br label %28

28:                                               ; preds = %20, %17
  %29 = load ptr, ptr %3, align 8
  ret ptr %29
}

; Function Attrs: inlinehint mustprogress nounwind uwtable
define linkonce_odr noundef i32 @_ZNK6icu_7720DecimalFormatSymbols16getCodePointZeroEv(ptr noundef nonnull align 8 dereferenceable(2579) %0) #2 comdat align 2 {
  %2 = alloca ptr, align 8
  store ptr %0, ptr %2, align 8, !tbaa !158
  %3 = load ptr, ptr %2, align 8
  %4 = getelementptr inbounds nuw %"class.icu_77::DecimalFormatSymbols", ptr %3, i32 0, i32 3
  %5 = load i32, ptr %4, align 8, !tbaa !423
  ret i32 %5
}

; Function Attrs: inlinehint mustprogress uwtable
define linkonce_odr noundef i32 @_ZN6icu_776number4impl5utils22insertDigitFromSymbolsERNS_22FormattedStringBuilderEiaRKNS_20DecimalFormatSymbolsENS3_5FieldER10UErrorCode(ptr noundef nonnull align 8 dereferenceable(136) %0, i32 noundef %1, i8 noundef signext %2, ptr noundef nonnull align 8 dereferenceable(2579) %3, i8 %4, ptr noundef nonnull align 4 dereferenceable(4) %5) #3 comdat {
  %7 = alloca i32, align 4
  %8 = alloca %"struct.icu_77::FormattedStringBuilder::Field", align 1
  %9 = alloca ptr, align 8
  %10 = alloca i32, align 4
  %11 = alloca i8, align 1
  %12 = alloca ptr, align 8
  %13 = alloca ptr, align 8
  %14 = alloca %"struct.icu_77::FormattedStringBuilder::Field", align 1
  %15 = alloca %"struct.icu_77::FormattedStringBuilder::Field", align 1
  %16 = getelementptr inbounds nuw %"struct.icu_77::FormattedStringBuilder::Field", ptr %8, i32 0, i32 0
  store i8 %4, ptr %16, align 1
  store ptr %0, ptr %9, align 8, !tbaa !111
  store i32 %1, ptr %10, align 4, !tbaa !14
  store i8 %2, ptr %11, align 1, !tbaa !202
  store ptr %3, ptr %12, align 8, !tbaa !158
  store ptr %5, ptr %13, align 8, !tbaa !22
  %17 = load ptr, ptr %12, align 8, !tbaa !158
  %18 = call noundef i32 @_ZNK6icu_7720DecimalFormatSymbols16getCodePointZeroEv(ptr noundef nonnull align 8 dereferenceable(2579) %17)
  %19 = icmp ne i32 %18, -1
  br i1 %19, label %20, label %32

20:                                               ; preds = %6
  %21 = load ptr, ptr %9, align 8, !tbaa !111
  %22 = load i32, ptr %10, align 4, !tbaa !14
  %23 = load ptr, ptr %12, align 8, !tbaa !158
  %24 = call noundef i32 @_ZNK6icu_7720DecimalFormatSymbols16getCodePointZeroEv(ptr noundef nonnull align 8 dereferenceable(2579) %23)
  %25 = load i8, ptr %11, align 1, !tbaa !202
  %26 = sext i8 %25 to i32
  %27 = add nsw i32 %24, %26
  call void @llvm.memcpy.p0.p0.i64(ptr align 1 %14, ptr align 1 %8, i64 1, i1 false), !tbaa.struct !219
  %28 = load ptr, ptr %13, align 8, !tbaa !22
  %29 = getelementptr inbounds nuw %"struct.icu_77::FormattedStringBuilder::Field", ptr %14, i32 0, i32 0
  %30 = load i8, ptr %29, align 1
  %31 = call noundef i32 @_ZN6icu_7722FormattedStringBuilder15insertCodePointEiiNS0_5FieldER10UErrorCode(ptr noundef nonnull align 8 dereferenceable(136) %21, i32 noundef %22, i32 noundef %27, i8 %30, ptr noundef nonnull align 4 dereferenceable(4) %28)
  store i32 %31, ptr %7, align 4
  br label %43

32:                                               ; preds = %6
  %33 = load ptr, ptr %9, align 8, !tbaa !111
  %34 = load i32, ptr %10, align 4, !tbaa !14
  %35 = load ptr, ptr %12, align 8, !tbaa !158
  %36 = load i8, ptr %11, align 1, !tbaa !202
  %37 = sext i8 %36 to i32
  %38 = call noundef nonnull align 8 dereferenceable(64) ptr @_ZNK6icu_7720DecimalFormatSymbols19getConstDigitSymbolEi(ptr noundef nonnull align 8 dereferenceable(2579) %35, i32 noundef %37)
  call void @llvm.memcpy.p0.p0.i64(ptr align 1 %15, ptr align 1 %8, i64 1, i1 false), !tbaa.struct !219
  %39 = load ptr, ptr %13, align 8, !tbaa !22
  %40 = getelementptr inbounds nuw %"struct.icu_77::FormattedStringBuilder::Field", ptr %15, i32 0, i32 0
  %41 = load i8, ptr %40, align 1
  %42 = call noundef i32 @_ZN6icu_7722FormattedStringBuilder6insertEiRKNS_13UnicodeStringENS0_5FieldER10UErrorCode(ptr noundef nonnull align 8 dereferenceable(136) %33, i32 noundef %34, ptr noundef nonnull align 8 dereferenceable(64) %38, i8 %41, ptr noundef nonnull align 4 dereferenceable(4) %39)
  store i32 %42, ptr %7, align 4
  br label %43

43:                                               ; preds = %32, %20
  %44 = load i32, ptr %7, align 4
  ret i32 %44
}

; Function Attrs: mustprogress nounwind uwtable
define linkonce_odr void @_ZN6icu_7722FormattedStringBuilder5FieldC2Ehh(ptr noundef nonnull align 1 dereferenceable(1) %0, i8 noundef zeroext %1, i8 noundef zeroext %2) unnamed_addr #0 comdat align 2 {
  %4 = alloca ptr, align 8
  %5 = alloca i8, align 1
  %6 = alloca i8, align 1
  store ptr %0, ptr %4, align 8, !tbaa !331
  store i8 %1, ptr %5, align 1, !tbaa !202
  store i8 %2, ptr %6, align 1, !tbaa !202
  %7 = load ptr, ptr %4, align 8
  %8 = getelementptr inbounds nuw %"struct.icu_77::FormattedStringBuilder::Field", ptr %7, i32 0, i32 0
  %9 = load i8, ptr %5, align 1, !tbaa !202
  %10 = zext i8 %9 to i32
  %11 = shl i32 %10, 4
  %12 = load i8, ptr %6, align 1, !tbaa !202
  %13 = zext i8 %12 to i32
  %14 = or i32 %11, %13
  %15 = trunc i32 %14 to i8
  store i8 %15, ptr %8, align 1, !tbaa !333
  ret void
}

; Function Attrs: inlinehint mustprogress uwtable
define linkonce_odr void @_ZNK6icu_7720DecimalFormatSymbols9getSymbolENS0_19ENumberFormatSymbolE(ptr dead_on_unwind noalias writable sret(%"class.icu_77::UnicodeString") align 8 %0, ptr noundef nonnull align 8 dereferenceable(2579) %1, i32 noundef %2) #3 comdat align 2 {
  %4 = alloca ptr, align 8
  %5 = alloca ptr, align 8
  %6 = alloca i32, align 4
  %7 = alloca ptr, align 8
  store ptr %0, ptr %4, align 8
  store ptr %1, ptr %5, align 8, !tbaa !158
  store i32 %2, ptr %6, align 4, !tbaa !329
  %8 = load ptr, ptr %5, align 8
  call void @llvm.lifetime.start.p0(i64 8, ptr %7) #14
  %9 = load i32, ptr %6, align 4, !tbaa !329
  %10 = icmp slt i32 %9, 29
  br i1 %10, label %11, label %16

11:                                               ; preds = %3
  %12 = getelementptr inbounds nuw %"class.icu_77::DecimalFormatSymbols", ptr %8, i32 0, i32 1
  %13 = load i32, ptr %6, align 4, !tbaa !329
  %14 = zext i32 %13 to i64
  %15 = getelementptr inbounds nuw [29 x %"class.icu_77::UnicodeString"], ptr %12, i64 0, i64 %14
  store ptr %15, ptr %7, align 8, !tbaa !268
  br label %18

16:                                               ; preds = %3
  %17 = getelementptr inbounds nuw %"class.icu_77::DecimalFormatSymbols", ptr %8, i32 0, i32 2
  store ptr %17, ptr %7, align 8, !tbaa !268
  br label %18

18:                                               ; preds = %16, %11
  %19 = load ptr, ptr %7, align 8, !tbaa !268
  call void @_ZN6icu_7713UnicodeStringC1ERKS0_(ptr noundef nonnull align 8 dereferenceable(64) %0, ptr noundef nonnull align 8 dereferenceable(64) %19)
  call void @llvm.lifetime.end.p0(i64 8, ptr %7) #14
  ret void
}

; Function Attrs: mustprogress uwtable
define noundef i32 @_ZN6icu_776number4impl19NumberFormatterImpl18writeIntegerDigitsERKNS1_16SimpleMicroPropsERNS1_15DecimalQuantityERNS_22FormattedStringBuilderEiR10UErrorCode(ptr noundef nonnull align 8 dereferenceable(96) %0, ptr noundef nonnull align 8 dereferenceable(66) %1, ptr noundef nonnull align 8 dereferenceable(136) %2, i32 noundef %3, ptr noundef nonnull align 4 dereferenceable(4) %4) #1 align 2 personality ptr @__gxx_personality_v0 {
  %6 = alloca ptr, align 8
  %7 = alloca ptr, align 8
  %8 = alloca ptr, align 8
  %9 = alloca i32, align 4
  %10 = alloca ptr, align 8
  %11 = alloca i32, align 4
  %12 = alloca i32, align 4
  %13 = alloca i32, align 4
  %14 = alloca %"class.icu_77::UnicodeString", align 8
  %15 = alloca %"struct.icu_77::FormattedStringBuilder::Field", align 1
  %16 = alloca ptr, align 8
  %17 = alloca i32, align 4
  %18 = alloca i8, align 1
  %19 = alloca %"struct.icu_77::FormattedStringBuilder::Field", align 1
  store ptr %0, ptr %6, align 8, !tbaa !130
  store ptr %1, ptr %7, align 8, !tbaa !109
  store ptr %2, ptr %8, align 8, !tbaa !111
  store i32 %3, ptr %9, align 4, !tbaa !14
  store ptr %4, ptr %10, align 8, !tbaa !22
  call void @llvm.lifetime.start.p0(i64 4, ptr %11) #14
  store i32 0, ptr %11, align 4, !tbaa !14
  call void @llvm.lifetime.start.p0(i64 4, ptr %12) #14
  %20 = load ptr, ptr %7, align 8, !tbaa !109
  %21 = call noundef i32 @_ZNK6icu_776number4impl15DecimalQuantity24getUpperDisplayMagnitudeEv(ptr noundef nonnull align 8 dereferenceable(66) %20)
  %22 = add nsw i32 %21, 1
  store i32 %22, ptr %12, align 4, !tbaa !14
  call void @llvm.lifetime.start.p0(i64 4, ptr %13) #14
  store i32 0, ptr %13, align 4, !tbaa !14
  br label %23

23:                                               ; preds = %78, %5
  %24 = load i32, ptr %13, align 4, !tbaa !14
  %25 = load i32, ptr %12, align 4, !tbaa !14
  %26 = icmp slt i32 %24, %25
  br i1 %26, label %28, label %27

27:                                               ; preds = %23
  call void @llvm.lifetime.end.p0(i64 4, ptr %13) #14
  br label %81

28:                                               ; preds = %23
  %29 = load ptr, ptr %6, align 8, !tbaa !130
  %30 = getelementptr inbounds nuw %"struct.icu_77::number::impl::SimpleMicroProps", ptr %29, i32 0, i32 1
  %31 = load i32, ptr %13, align 4, !tbaa !14
  %32 = load ptr, ptr %7, align 8, !tbaa !109
  %33 = call noundef zeroext i1 @_ZNK6icu_776number4impl7Grouper15groupAtPositionEiRKNS1_15DecimalQuantityE(ptr noundef nonnull align 4 dereferenceable(12) %30, i32 noundef %31, ptr noundef nonnull align 8 dereferenceable(66) %32)
  br i1 %33, label %34, label %62

34:                                               ; preds = %28
  %35 = load ptr, ptr %8, align 8, !tbaa !111
  %36 = load i32, ptr %9, align 4, !tbaa !14
  call void @llvm.lifetime.start.p0(i64 64, ptr %14) #14
  %37 = load ptr, ptr %6, align 8, !tbaa !130
  %38 = getelementptr inbounds nuw %"struct.icu_77::number::impl::SimpleMicroProps", ptr %37, i32 0, i32 2
  %39 = load i8, ptr %38, align 8, !tbaa !134, !range !105, !noundef !106
  %40 = trunc i8 %39 to i1
  br i1 %40, label %41, label %45

41:                                               ; preds = %34
  %42 = load ptr, ptr %6, align 8, !tbaa !130
  %43 = getelementptr inbounds nuw %"struct.icu_77::number::impl::SimpleMicroProps", ptr %42, i32 0, i32 5
  %44 = load ptr, ptr %43, align 8, !tbaa !132
  call void @_ZNK6icu_7720DecimalFormatSymbols9getSymbolENS0_19ENumberFormatSymbolE(ptr dead_on_unwind writable sret(%"class.icu_77::UnicodeString") align 8 %14, ptr noundef nonnull align 8 dereferenceable(2579) %44, i32 noundef 17)
  br label %49

45:                                               ; preds = %34
  %46 = load ptr, ptr %6, align 8, !tbaa !130
  %47 = getelementptr inbounds nuw %"struct.icu_77::number::impl::SimpleMicroProps", ptr %46, i32 0, i32 5
  %48 = load ptr, ptr %47, align 8, !tbaa !132
  call void @_ZNK6icu_7720DecimalFormatSymbols9getSymbolENS0_19ENumberFormatSymbolE(ptr dead_on_unwind writable sret(%"class.icu_77::UnicodeString") align 8 %14, ptr noundef nonnull align 8 dereferenceable(2579) %48, i32 noundef 1)
  br label %49

49:                                               ; preds = %45, %41
  invoke void @_ZN6icu_7722FormattedStringBuilder5FieldC2Ehh(ptr noundef nonnull align 1 dereferenceable(1) %15, i8 noundef zeroext 2, i8 noundef zeroext 6)
          to label %50 unwind label %58

50:                                               ; preds = %49
  %51 = load ptr, ptr %10, align 8, !tbaa !22
  %52 = getelementptr inbounds nuw %"struct.icu_77::FormattedStringBuilder::Field", ptr %15, i32 0, i32 0
  %53 = load i8, ptr %52, align 1
  %54 = invoke noundef i32 @_ZN6icu_7722FormattedStringBuilder6insertEiRKNS_13UnicodeStringENS0_5FieldER10UErrorCode(ptr noundef nonnull align 8 dereferenceable(136) %35, i32 noundef %36, ptr noundef nonnull align 8 dereferenceable(64) %14, i8 %53, ptr noundef nonnull align 4 dereferenceable(4) %51)
          to label %55 unwind label %58

55:                                               ; preds = %50
  %56 = load i32, ptr %11, align 4, !tbaa !14
  %57 = add nsw i32 %56, %54
  store i32 %57, ptr %11, align 4, !tbaa !14
  call void @_ZN6icu_7713UnicodeStringD1Ev(ptr noundef nonnull align 8 dereferenceable(64) %14) #14
  call void @llvm.lifetime.end.p0(i64 64, ptr %14) #14
  br label %62

58:                                               ; preds = %50, %49
  %59 = landingpad { ptr, i32 }
          cleanup
  %60 = extractvalue { ptr, i32 } %59, 0
  store ptr %60, ptr %16, align 8
  %61 = extractvalue { ptr, i32 } %59, 1
  store i32 %61, ptr %17, align 4
  call void @_ZN6icu_7713UnicodeStringD1Ev(ptr noundef nonnull align 8 dereferenceable(64) %14) #14
  call void @llvm.lifetime.end.p0(i64 64, ptr %14) #14
  call void @llvm.lifetime.end.p0(i64 4, ptr %13) #14
  call void @llvm.lifetime.end.p0(i64 4, ptr %12) #14
  call void @llvm.lifetime.end.p0(i64 4, ptr %11) #14
  br label %83

62:                                               ; preds = %55, %28
  call void @llvm.lifetime.start.p0(i64 1, ptr %18) #14
  %63 = load ptr, ptr %7, align 8, !tbaa !109
  %64 = load i32, ptr %13, align 4, !tbaa !14
  %65 = call noundef signext i8 @_ZNK6icu_776number4impl15DecimalQuantity8getDigitEi(ptr noundef nonnull align 8 dereferenceable(66) %63, i32 noundef %64)
  store i8 %65, ptr %18, align 1, !tbaa !202
  %66 = load ptr, ptr %8, align 8, !tbaa !111
  %67 = load i32, ptr %9, align 4, !tbaa !14
  %68 = load i8, ptr %18, align 1, !tbaa !202
  %69 = load ptr, ptr %6, align 8, !tbaa !130
  %70 = getelementptr inbounds nuw %"struct.icu_77::number::impl::SimpleMicroProps", ptr %69, i32 0, i32 5
  %71 = load ptr, ptr %70, align 8, !tbaa !132
  call void @_ZN6icu_7722FormattedStringBuilder5FieldC2Ehh(ptr noundef nonnull align 1 dereferenceable(1) %19, i8 noundef zeroext 2, i8 noundef zeroext 0)
  %72 = load ptr, ptr %10, align 8, !tbaa !22
  %73 = getelementptr inbounds nuw %"struct.icu_77::FormattedStringBuilder::Field", ptr %19, i32 0, i32 0
  %74 = load i8, ptr %73, align 1
  %75 = call noundef i32 @_ZN6icu_776number4impl5utils22insertDigitFromSymbolsERNS_22FormattedStringBuilderEiaRKNS_20DecimalFormatSymbolsENS3_5FieldER10UErrorCode(ptr noundef nonnull align 8 dereferenceable(136) %66, i32 noundef %67, i8 noundef signext %68, ptr noundef nonnull align 8 dereferenceable(2579) %71, i8 %74, ptr noundef nonnull align 4 dereferenceable(4) %72)
  %76 = load i32, ptr %11, align 4, !tbaa !14
  %77 = add nsw i32 %76, %75
  store i32 %77, ptr %11, align 4, !tbaa !14
  call void @llvm.lifetime.end.p0(i64 1, ptr %18) #14
  br label %78

78:                                               ; preds = %62
  %79 = load i32, ptr %13, align 4, !tbaa !14
  %80 = add nsw i32 %79, 1
  store i32 %80, ptr %13, align 4, !tbaa !14
  br label %23, !llvm.loop !334

81:                                               ; preds = %27
  %82 = load i32, ptr %11, align 4, !tbaa !14
  call void @llvm.lifetime.end.p0(i64 4, ptr %12) #14
  call void @llvm.lifetime.end.p0(i64 4, ptr %11) #14
  ret i32 %82

83:                                               ; preds = %58
  %84 = load ptr, ptr %16, align 8
  %85 = load i32, ptr %17, align 4
  %86 = insertvalue { ptr, i32 } poison, ptr %84, 0
  %87 = insertvalue { ptr, i32 } %86, i32 %85, 1
  resume { ptr, i32 } %87
}