; Function Attrs: mustprogress uwtable
define noundef i32 @_ZN6icu_776number4impl19NumberFormatterImpl18writeIntegerDigitsERKNS1_16SimpleMicroPropsERNS1_15DecimalQuantityERNS_22FormattedStringBuilderEiR10UErrorCode(ptr noundef nonnull align 8 dereferenceable(96) %0, ptr noundef nonnull align 8 dereferenceable(66) %1, ptr noundef nonnull align 8 dereferenceable(136) %2, i32 noundef %3, ptr noundef nonnull align 4 dereferenceable(4) %4) local_unnamed_addr #1 align 2 personality ptr @__gxx_personality_v0 {
  %6 = alloca %"class.icu_77::UnicodeString", align 8
  %7 = tail call noundef i32 @_ZNK6icu_776number4impl15DecimalQuantity24getUpperDisplayMagnitudeEv(ptr noundef nonnull align 8 dereferenceable(66) %1)
  %.not27 = icmp slt i32 %7, 0
  br i1 %.not27, label %._crit_edge, label %.lr.ph

.lr.ph:                                           ; preds = %5
  %8 = getelementptr inbounds nuw i8, ptr %0, i64 4
  %9 = getelementptr inbounds nuw i8, ptr %0, i64 16
  %10 = getelementptr inbounds nuw i8, ptr %0, i64 88
  br label %11

._crit_edge:                                      ; preds = %_ZN6icu_776number4impl5utils22insertDigitFromSymbolsERNS_22FormattedStringBuilderEiaRKNS_20DecimalFormatSymbolsENS3_5FieldER10UErrorCode.exit, %5
  %.0.lcssa = phi i32 [ 0, %5 ], [ %41, %_ZN6icu_776number4impl5utils22insertDigitFromSymbolsERNS_22FormattedStringBuilderEiaRKNS_20DecimalFormatSymbolsENS3_5FieldER10UErrorCode.exit ]
  ret i32 %.0.lcssa

11:                                               ; preds = %.lr.ph, %_ZN6icu_776number4impl5utils22insertDigitFromSymbolsERNS_22FormattedStringBuilderEiaRKNS_20DecimalFormatSymbolsENS3_5FieldER10UErrorCode.exit
  %.029 = phi i32 [ 0, %.lr.ph ], [ %41, %_ZN6icu_776number4impl5utils22insertDigitFromSymbolsERNS_22FormattedStringBuilderEiaRKNS_20DecimalFormatSymbolsENS3_5FieldER10UErrorCode.exit ]
  %.02428 = phi i32 [ 0, %.lr.ph ], [ %42, %_ZN6icu_776number4impl5utils22insertDigitFromSymbolsERNS_22FormattedStringBuilderEiaRKNS_20DecimalFormatSymbolsENS3_5FieldER10UErrorCode.exit ]
  %12 = call noundef zeroext i1 @_ZNK6icu_776number4impl7Grouper15groupAtPositionEiRKNS1_15DecimalQuantityE(ptr noundef nonnull align 4 dereferenceable(12) %8, i32 noundef %.02428, ptr noundef nonnull align 8 dereferenceable(66) %1)
  br i1 %12, label %13, label %23

13:                                               ; preds = %11
  call void @llvm.lifetime.start.p0(i64 64, ptr nonnull %6) #16
  %14 = load i8, ptr %9, align 8, !tbaa !123, !range !124, !noundef !125
  %15 = trunc nuw i8 %14 to i1
  %16 = load ptr, ptr %10, align 8, !tbaa !121
  %. = select i1 %15, i64 1096, i64 72
  %17 = getelementptr inbounds nuw i8, ptr %16, i64 %.
  call void @_ZN6icu_7713UnicodeStringC1ERKS0_(ptr noundef nonnull align 8 dereferenceable(64) %6, ptr noundef nonnull align 8 dereferenceable(64) %17)
  %18 = invoke noundef i32 @_ZN6icu_7722FormattedStringBuilder6insertEiRKNS_13UnicodeStringENS0_5FieldER10UErrorCode(ptr noundef nonnull align 8 dereferenceable(136) %2, i32 noundef %3, ptr noundef nonnull align 8 dereferenceable(64) %6, i8 38, ptr noundef nonnull align 4 dereferenceable(4) %4)
          to label %19 unwind label %21

19:                                               ; preds = %13
  %20 = add nsw i32 %18, %.029
  call void @_ZN6icu_7713UnicodeStringD1Ev(ptr noundef nonnull align 8 dereferenceable(64) %6) #16
  call void @llvm.lifetime.end.p0(i64 64, ptr nonnull %6) #16
  br label %23

21:                                               ; preds = %13
  %22 = landingpad { ptr, i32 }
          cleanup
  call void @_ZN6icu_7713UnicodeStringD1Ev(ptr noundef nonnull align 8 dereferenceable(64) %6) #16
  call void @llvm.lifetime.end.p0(i64 64, ptr nonnull %6) #16
  resume { ptr, i32 } %22

23:                                               ; preds = %19, %11
  %.1 = phi i32 [ %20, %19 ], [ %.029, %11 ]
  %24 = call noundef signext i8 @_ZNK6icu_776number4impl15DecimalQuantity8getDigitEi(ptr noundef nonnull align 8 dereferenceable(66) %1, i32 noundef %.02428)
  %25 = load ptr, ptr %10, align 8, !tbaa !121
  %26 = getelementptr inbounds nuw i8, ptr %25, i64 1928
  %27 = load i32, ptr %26, align 8, !tbaa !126
  %.not.i = icmp eq i32 %27, -1
  %28 = sext i8 %24 to i32
  br i1 %.not.i, label %32, label %29

29:                                               ; preds = %23
  %30 = add nsw i32 %27, %28
  %31 = call noundef i32 @_ZN6icu_7722FormattedStringBuilder15insertCodePointEiiNS0_5FieldER10UErrorCode(ptr noundef nonnull align 8 dereferenceable(136) %2, i32 noundef %3, i32 noundef %30, i8 32, ptr noundef nonnull align 4 dereferenceable(4) %4)
  br label %_ZN6icu_776number4impl5utils22insertDigitFromSymbolsERNS_22FormattedStringBuilderEiaRKNS_20DecimalFormatSymbolsENS3_5FieldER10UErrorCode.exit

32:                                               ; preds = %23
  %33 = add nsw i32 %28, -10
  %34 = icmp ult i32 %33, -9
  %35 = getelementptr inbounds nuw i8, ptr %25, i64 264
  %36 = add nuw nsw i32 %28, 17
  %37 = getelementptr inbounds nuw i8, ptr %25, i64 8
  %38 = zext nneg i32 %36 to i64
  %39 = getelementptr inbounds nuw [29 x %"class.icu_77::UnicodeString"], ptr %37, i64 0, i64 %38
  %.0.i.i = select i1 %34, ptr %35, ptr %39
  %40 = call noundef i32 @_ZN6icu_7722FormattedStringBuilder6insertEiRKNS_13UnicodeStringENS0_5FieldER10UErrorCode(ptr noundef nonnull align 8 dereferenceable(136) %2, i32 noundef %3, ptr noundef nonnull align 8 dereferenceable(64) %.0.i.i, i8 32, ptr noundef nonnull align 4 dereferenceable(4) %4)
  br label %_ZN6icu_776number4impl5utils22insertDigitFromSymbolsERNS_22FormattedStringBuilderEiaRKNS_20DecimalFormatSymbolsENS3_5FieldER10UErrorCode.exit

_ZN6icu_776number4impl5utils22insertDigitFromSymbolsERNS_22FormattedStringBuilderEiaRKNS_20DecimalFormatSymbolsENS3_5FieldER10UErrorCode.exit: ; preds = %29, %32
  %.0.i = phi i32 [ %31, %29 ], [ %40, %32 ]
  %41 = add nsw i32 %.0.i, %.1
  %42 = add nuw i32 %.02428, 1
  %exitcond.not = icmp eq i32 %.02428, %7
  br i1 %exitcond.not, label %._crit_edge, label %11, !llvm.loop !223
}